target datalayout = "e-m:e-p270:32:32-p271:32:32-p272:64:64-i64:64-i128:128-f80:128-n8:16:32:64-S128"
target triple = "x86_64-unknown-linux-gnu"

%struct.i915_reg_t = type { i32 }

@.str.3 = private unnamed_addr constant [10 x i8] c"%s %s: %s\00", align 1
@.str.4 = private unnamed_addr constant [34 x i8] c"drm_WARN_ON(crtc->pipe == PIPE_A)\00", align 1
@.str.5 = private unnamed_addr constant [42 x i8] c"drivers/gpu/drm/i915/display/intel_vdsc.c\00", align 1
@.str.25 = private unnamed_addr constant [24 x i8] c"drm_WARN_ON(!all_equal)\00", align 1

; Function Attrs: fn_ret_thunk_extern nounwind null_pointer_is_valid
define internal fastcc void @intel_dsc_get_pps_reg(ptr nocapture noundef readonly %0, i32 noundef %1, ptr nocapture noundef writeonly %2, i32 noundef %3) unnamed_addr #2 align 16 {
  %5 = load ptr, ptr %0, align 8
  %6 = getelementptr inbounds i8, ptr %5, i64 1648
  %7 = load i32, ptr %6, align 8
  %8 = load ptr, ptr %5, align 8
  %9 = getelementptr inbounds i8, ptr %8, i64 2632
  %10 = load i16, ptr %9, align 8
  %11 = icmp ugt i16 %10, 11
  br i1 %11, label %31, label %12

12:                                               ; preds = %4
  %13 = getelementptr inbounds i8, ptr %0, i64 864
  %14 = load i32, ptr %13, align 8
  %15 = add i32 %14, -4
  %16 = icmp ult i32 %15, 3
  br i1 %16, label %31, label %17

17:                                               ; preds = %12
  %18 = icmp eq i32 %7, 0
  br i1 %18, label %19, label %31, !prof !11

19:                                               ; preds = %17
  tail call void asm sideeffect "897: nop\0A\09.pushsection .discard.instr_begin\0A\09.long 897b - .\0A\09.popsection\0A\09", "i,~{dirflag},~{fpsr},~{flags}"(i32 897) #7, !srcloc !12
  %20 = getelementptr inbounds i8, ptr %8, i64 8
  %21 = load ptr, ptr %20, align 8
  %22 = tail call ptr @dev_driver_string(ptr noundef %21) #7
  %23 = load ptr, ptr %20, align 8
  %24 = getelementptr inbounds i8, ptr %23, i64 80
  %25 = load ptr, ptr %24, align 8
  %26 = icmp eq ptr %25, null
  br i1 %26, label %27, label %29

27:                                               ; preds = %19
  %28 = load ptr, ptr %23, align 8
  br label %29

29:                                               ; preds = %27, %19
  %30 = phi ptr [ %28, %27 ], [ %25, %19 ]
  tail call void (ptr, ...) @__warn_printk(ptr noundef nonnull @.str.3, ptr noundef %22, ptr noundef %30, ptr noundef nonnull @.str.4) #7
  tail call void asm sideeffect "898: nop\0A\09.pushsection .discard.instr_begin\0A\09.long 898b - .\0A\09.popsection\0A\09", "i,~{dirflag},~{fpsr},~{flags}"(i32 898) #7, !srcloc !13
  tail call void asm sideeffect "1:\09.byte 0x0f, 0x0b\0A.pushsection __bug_table,\22aw\22\0A2:\09.long 1b - .\09# bug_entry::bug_addr\0A\09.long ${0:c} - .\09# bug_entry::file\0A\09.word ${1:c}\09# bug_entry::line\0A\09.word ${2:c}\09# bug_entry::flags\0A\09.org 2b+${3:c}\0A.popsection\0A998:\0A\09.pushsection .discard.reachable\0A\09.long 998b\0A\09.popsection\0A\09", "i,i,i,i,~{dirflag},~{fpsr},~{flags}"(ptr nonnull @.str.5, i32 50, i32 2313, i64 12) #7, !srcloc !14
  tail call void asm sideeffect "899: nop\0A\09.pushsection .discard.instr_end\0A\09.long 899b - .\0A\09.popsection\0A\09", "i,~{dirflag},~{fpsr},~{flags}"(i32 899) #7, !srcloc !15
  tail call void asm sideeffect "900: nop\0A\09.pushsection .discard.instr_end\0A\09.long 900b - .\0A\09.popsection\0A\09", "i,~{dirflag},~{fpsr},~{flags}"(i32 900) #7, !srcloc !16
  br label %31

31:                                               ; preds = %29, %17, %12, %4
  %32 = phi i1 [ true, %4 ], [ false, %12 ], [ true, %29 ], [ true, %17 ]
  %33 = icmp sgt i32 %3, 1
  br i1 %33, label %34, label %48

34:                                               ; preds = %31
  %35 = getelementptr i8, ptr %2, i64 4
  %36 = shl i32 %1, 2
  br i1 %32, label %37, label %41

37:                                               ; preds = %34
  %38 = shl i32 %7, 9
  %39 = add i32 %36, 491888
  %40 = add i32 %39, %38
  br label %46

41:                                               ; preds = %34
  %42 = icmp slt i32 %1, 12
  %43 = add i32 %36, 48
  %44 = select i1 %42, i32 %36, i32 %43
  %45 = add i32 %44, 440832
  br label %46

46:                                               ; preds = %41, %37
  %47 = phi i32 [ %45, %41 ], [ %40, %37 ]
  store i32 %47, ptr %35, align 4
  br label %48

48:                                               ; preds = %46, %31
  %49 = shl i32 %1, 2
  br i1 %32, label %50, label %54

50:                                               ; preds = %48
  %51 = shl i32 %7, 9
  %52 = add i32 %49, 491632
  %53 = add i32 %52, %51
  br label %59

54:                                               ; preds = %48
  %55 = icmp slt i32 %1, 12
  %56 = add i32 %49, 48
  %57 = select i1 %55, i32 %49, i32 %56
  %58 = add i32 %57, 438784
  br label %59

59:                                               ; preds = %54, %50
  %60 = phi i32 [ %58, %54 ], [ %53, %50 ]
  store i32 %60, ptr %2, align 4
  ret void
}

; Function Attrs: fn_ret_thunk_extern nounwind null_pointer_is_valid
define internal fastcc i32 @intel_dsc_pps_read_and_verify(ptr nocapture noundef readonly %0, i32 noundef %1) unnamed_addr #2 align 16 {
  %3 = alloca [2 x %struct.i915_reg_t], align 8
  %4 = load ptr, ptr %0, align 8
  %5 = load ptr, ptr %4, align 8
  call void @llvm.lifetime.start.p0(i64 8, ptr nonnull %3) #7
  store i64 0, ptr %3, align 8, !annotation !17
  %6 = getelementptr inbounds i8, ptr %0, i64 4757
  %7 = load i8, ptr %6, align 1, !range !5, !noundef !6
  %8 = icmp eq i8 %7, 0
  %9 = select i1 %8, i32 1, i32 2
  call fastcc void @intel_dsc_get_pps_reg(ptr noundef %0, i32 noundef %1, ptr noundef nonnull %3, i32 noundef %9)
  %10 = load i32, ptr %3, align 8
  %11 = getelementptr inbounds i8, ptr %5, i64 7368
  %12 = getelementptr inbounds i8, ptr %5, i64 7512
  %13 = load ptr, ptr %12, align 8
  %14 = tail call i32 %13(ptr noundef %11, i32 %10, i1 noundef zeroext true) #7
  %15 = getelementptr inbounds i8, ptr %3, i64 4
  %16 = load i32, ptr %15, align 4
  br label %17

17:                                               ; preds = %20, %2
  %18 = phi i32 [ 1, %2 ], [ 2, %20 ]
  %19 = icmp ult i32 %18, %9
  br i1 %19, label %20, label %37

20:                                               ; preds = %17
  %21 = load ptr, ptr %12, align 8
  %22 = tail call i32 %21(ptr noundef %11, i32 %16, i1 noundef zeroext true) #7
  %23 = icmp eq i32 %22, %14
  br i1 %23, label %17, label %24, !llvm.loop !22

24:                                               ; preds = %20
  call void @llvm.lifetime.end.p0(i64 8, ptr nonnull %3) #7
  br i1 %19, label %25, label %38, !prof !11

25:                                               ; preds = %24
  tail call void asm sideeffect "922: nop\0A\09.pushsection .discard.instr_begin\0A\09.long 922b - .\0A\09.popsection\0A\09", "i,~{dirflag},~{fpsr},~{flags}"(i32 922) #7, !srcloc !23
  %26 = getelementptr inbounds i8, ptr %5, i64 8
  %27 = load ptr, ptr %26, align 8
  %28 = tail call ptr @dev_driver_string(ptr noundef %27) #7
  %29 = load ptr, ptr %26, align 8
  %30 = getelementptr inbounds i8, ptr %29, i64 80
  %31 = load ptr, ptr %30, align 8
  %32 = icmp eq ptr %31, null
  br i1 %32, label %33, label %35

33:                                               ; preds = %25
  %34 = load ptr, ptr %29, align 8
  br label %35

35:                                               ; preds = %33, %25
  %36 = phi ptr [ %34, %33 ], [ %31, %25 ]
  tail call void (ptr, ...) @__warn_printk(ptr noundef nonnull @.str.3, ptr noundef %28, ptr noundef %36, ptr noundef nonnull @.str.25) #7
  tail call void asm sideeffect "923: nop\0A\09.pushsection .discard.instr_begin\0A\09.long 923b - .\0A\09.popsection\0A\09", "i,~{dirflag},~{fpsr},~{flags}"(i32 923) #7, !srcloc !24
  tail call void asm sideeffect "1:\09.byte 0x0f, 0x0b\0A.pushsection __bug_table,\22aw\22\0A2:\09.long 1b - .\09# bug_entry::bug_addr\0A\09.long ${0:c} - .\09# bug_entry::file\0A\09.word ${1:c}\09# bug_entry::line\0A\09.word ${2:c}\09# bug_entry::flags\0A\09.org 2b+${3:c}\0A.popsection\0A998:\0A\09.pushsection .discard.reachable\0A\09.long 998b\0A\09.popsection\0A\09", "i,i,i,i,~{dirflag},~{fpsr},~{flags}"(ptr nonnull @.str.5, i32 852, i32 2313, i64 12) #7, !srcloc !25
  tail call void asm sideeffect "924: nop\0A\09.pushsection .discard.instr_end\0A\09.long 924b - .\0A\09.popsection\0A\09", "i,~{dirflag},~{fpsr},~{flags}"(i32 924) #7, !srcloc !26
  tail call void asm sideeffect "925: nop\0A\09.pushsection .discard.instr_end\0A\09.long 925b - .\0A\09.popsection\0A\09", "i,~{dirflag},~{fpsr},~{flags}"(i32 925) #7, !srcloc !27
  br label %38

37:                                               ; preds = %17
  call void @llvm.lifetime.end.p0(i64 8, ptr nonnull %3) #7
  br label %38

38:                                               ; preds = %37, %35, %24
  ret i32 %14
}