; Function Attrs: fn_ret_thunk_extern nounwind null_pointer_is_valid
define internal fastcc i32 @intel_dsc_pps_read_and_verify(ptr nocapture noundef readonly %0, i32 noundef %1) unnamed_addr #2 align 16 {
  %3 = load ptr, ptr %0, align 8
  %4 = load ptr, ptr %3, align 8
  %5 = getelementptr inbounds i8, ptr %0, i64 4757
  %6 = load i8, ptr %5, align 1, !range !5, !noundef !6
  %.not.not.not = icmp eq i8 %6, 0
  %7 = getelementptr inbounds i8, ptr %3, i64 1648
  %8 = load i32, ptr %7, align 8
  %9 = getelementptr inbounds i8, ptr %4, i64 2632
  %10 = load i16, ptr %9, align 8
  %11 = icmp ugt i16 %10, 11
  br i1 %11, label %.thread2.i, label %12

12:                                               ; preds = %2
  %13 = getelementptr inbounds i8, ptr %0, i64 864
  %14 = load i32, ptr %13, align 8
  %15 = add i32 %14, -4
  %16 = icmp ult i32 %15, 3
  br i1 %16, label %.thread.i, label %17

17:                                               ; preds = %12
  %18 = icmp eq i32 %8, 0
  br i1 %18, label %19, label %.thread2.i, !prof !11

19:                                               ; preds = %17
  tail call void asm sideeffect "897: nop\0A\09.pushsection .discard.instr_begin\0A\09.long 897b - .\0A\09.popsection\0A\09", "i,~{dirflag},~{fpsr},~{flags}"(i32 897) #8, !srcloc !12
  %20 = getelementptr inbounds i8, ptr %4, i64 8
  %21 = load ptr, ptr %20, align 8
  %22 = tail call ptr @dev_driver_string(ptr noundef %21) #8
  %23 = load ptr, ptr %20, align 8
  %24 = getelementptr inbounds i8, ptr %23, i64 80
  %25 = load ptr, ptr %24, align 8
  %26 = icmp eq ptr %25, null
  br i1 %26, label %27, label %29

27:                                               ; preds = %19
  %28 = load ptr, ptr %23, align 8
  br label %29

29:                                               ; preds = %27, %19
  %30 = phi ptr [ %28, %27 ], [ %25, %19 ]
  tail call void (ptr, ...) @__warn_printk(ptr noundef nonnull @.str.3, ptr noundef %22, ptr noundef %30, ptr noundef nonnull @.str.4) #8
  tail call void asm sideeffect "898: nop\0A\09.pushsection .discard.instr_begin\0A\09.long 898b - .\0A\09.popsection\0A\09", "i,~{dirflag},~{fpsr},~{flags}"(i32 898) #8, !srcloc !13
  tail call void asm sideeffect "1:\09.byte 0x0f, 0x0b\0A.pushsection __bug_table,\22aw\22\0A2:\09.long 1b - .\09# bug_entry::bug_addr\0A\09.long ${0:c} - .\09# bug_entry::file\0A\09.word ${1:c}\09# bug_entry::line\0A\09.word ${2:c}\09# bug_entry::flags\0A\09.org 2b+${3:c}\0A.popsection\0A998:\0A\09.pushsection .discard.reachable\0A\09.long 998b\0A\09.popsection\0A\09", "i,i,i,i,~{dirflag},~{fpsr},~{flags}"(ptr nonnull @.str.5, i32 50, i32 2313, i64 12) #8, !srcloc !14
  tail call void asm sideeffect "899: nop\0A\09.pushsection .discard.instr_end\0A\09.long 899b - .\0A\09.popsection\0A\09", "i,~{dirflag},~{fpsr},~{flags}"(i32 899) #8, !srcloc !15
  tail call void asm sideeffect "900: nop\0A\09.pushsection .discard.instr_end\0A\09.long 900b - .\0A\09.popsection\0A\09", "i,~{dirflag},~{fpsr},~{flags}"(i32 900) #8, !srcloc !16
  br label %.thread2.i

.thread2.i:                                       ; preds = %29, %17, %2
  %.pre.i = shl i32 %1, 2
  %.pre5.i = shl i32 %8, 9
  %31 = add i32 %.pre.i, 491888
  %32 = add i32 %31, %.pre5.i
  %.sroa.6.0 = select i1 %.not.not.not, i32 0, i32 %32
  %33 = add i32 %.pre5.i, 491632
  %34 = add i32 %33, %.pre.i
  br label %intel_dsc_get_pps_reg.exit

.thread.i:                                        ; preds = %12
  %.pre7.i = shl i32 %1, 2
  br i1 %.not.not.not, label %.thread..thread3_crit_edge.i, label %35

.thread..thread3_crit_edge.i:                     ; preds = %.thread.i
  %.pre9.i = add i32 %.pre7.i, 48
  br label %.thread3.i

35:                                               ; preds = %.thread.i
  %36 = icmp slt i32 %1, 12
  %37 = add i32 %.pre7.i, 48
  %38 = select i1 %36, i32 %.pre7.i, i32 %37
  %39 = add i32 %38, 440832
  br label %.thread3.i

.thread3.i:                                       ; preds = %35, %.thread..thread3_crit_edge.i
  %.sroa.6.1 = phi i32 [ %39, %35 ], [ 0, %.thread..thread3_crit_edge.i ]
  %.pre-phi10.i = phi i32 [ %37, %35 ], [ %.pre9.i, %.thread..thread3_crit_edge.i ]
  %40 = icmp slt i32 %1, 12
  %41 = select i1 %40, i32 %.pre7.i, i32 %.pre-phi10.i
  %42 = add i32 %41, 438784
  br label %intel_dsc_get_pps_reg.exit

intel_dsc_get_pps_reg.exit:                       ; preds = %.thread2.i, %.thread3.i
  %.sroa.6.2 = phi i32 [ %.sroa.6.0, %.thread2.i ], [ %.sroa.6.1, %.thread3.i ]
  %43 = phi i32 [ %34, %.thread2.i ], [ %42, %.thread3.i ]
  %44 = getelementptr inbounds i8, ptr %4, i64 7368
  %45 = getelementptr inbounds i8, ptr %4, i64 7512
  %46 = load ptr, ptr %45, align 8
  %47 = tail call i32 %46(ptr noundef %44, i32 %43, i1 noundef zeroext true) #8
  br i1 %.not.not.not, label %.loopexit.split, label %intel_dsc_get_pps_reg.exit.split

intel_dsc_get_pps_reg.exit.split:                 ; preds = %intel_dsc_get_pps_reg.exit
  %48 = load ptr, ptr %45, align 8
  %49 = tail call i32 %48(ptr noundef %44, i32 %.sroa.6.2, i1 noundef zeroext true) #8
  %50 = icmp eq i32 %49, %47
  br i1 %50, label %.loopexit.split, label %51, !llvm.loop !22

51:                                               ; preds = %intel_dsc_get_pps_reg.exit.split
  tail call void asm sideeffect "922: nop\0A\09.pushsection .discard.instr_begin\0A\09.long 922b - .\0A\09.popsection\0A\09", "i,~{dirflag},~{fpsr},~{flags}"(i32 922) #8, !srcloc !23
  %52 = getelementptr inbounds i8, ptr %4, i64 8
  %53 = load ptr, ptr %52, align 8
  %54 = tail call ptr @dev_driver_string(ptr noundef %53) #8
  %55 = load ptr, ptr %52, align 8
  %56 = getelementptr inbounds i8, ptr %55, i64 80
  %57 = load ptr, ptr %56, align 8
  %58 = icmp eq ptr %57, null
  br i1 %58, label %59, label %61

59:                                               ; preds = %51
  %60 = load ptr, ptr %55, align 8
  br label %61

61:                                               ; preds = %59, %51
  %62 = phi ptr [ %60, %59 ], [ %57, %51 ]
  tail call void (ptr, ...) @__warn_printk(ptr noundef nonnull @.str.3, ptr noundef %54, ptr noundef %62, ptr noundef nonnull @.str.25) #8
  tail call void asm sideeffect "923: nop\0A\09.pushsection .discard.instr_begin\0A\09.long 923b - .\0A\09.popsection\0A\09", "i,~{dirflag},~{fpsr},~{flags}"(i32 923) #8, !srcloc !24
  tail call void asm sideeffect "1:\09.byte 0x0f, 0x0b\0A.pushsection __bug_table,\22aw\22\0A2:\09.long 1b - .\09# bug_entry::bug_addr\0A\09.long ${0:c} - .\09# bug_entry::file\0A\09.word ${1:c}\09# bug_entry::line\0A\09.word ${2:c}\09# bug_entry::flags\0A\09.org 2b+${3:c}\0A.popsection\0A998:\0A\09.pushsection .discard.reachable\0A\09.long 998b\0A\09.popsection\0A\09", "i,i,i,i,~{dirflag},~{fpsr},~{flags}"(ptr nonnull @.str.5, i32 852, i32 2313, i64 12) #8, !srcloc !25
  tail call void asm sideeffect "924: nop\0A\09.pushsection .discard.instr_end\0A\09.long 924b - .\0A\09.popsection\0A\09", "i,~{dirflag},~{fpsr},~{flags}"(i32 924) #8, !srcloc !26
  tail call void asm sideeffect "925: nop\0A\09.pushsection .discard.instr_end\0A\09.long 925b - .\0A\09.popsection\0A\09", "i,~{dirflag},~{fpsr},~{flags}"(i32 925) #8, !srcloc !27
  br label %.loopexit.split

.loopexit.split:                                  ; preds = %intel_dsc_get_pps_reg.exit, %intel_dsc_get_pps_reg.exit.split, %61
  ret i32 %47
}